; Function Attrs: nounwind uwtable
define internal i32 @T1_Size_Request(ptr nocapture noundef readonly %0, ptr noundef %1) #2 {
  %.val = load ptr, ptr %0, align 8
  %3 = getelementptr i8, ptr %.val, i64 176
  %.val.val = load ptr, ptr %3, align 8
  %4 = getelementptr i8, ptr %.val, i64 880
  %.val.val11 = load ptr, ptr %4, align 8
  %5 = getelementptr i8, ptr %.val.val, i64 8
  %.val.val.val = load ptr, ptr %5, align 8
  %6 = tail call ptr @FT_Get_Module(ptr noundef %.val.val.val, ptr noundef nonnull @.str.14) #16
  %7 = icmp ne ptr %6, null
  %8 = icmp ne ptr %.val.val11, null
  %or.cond.i = select i1 %7, i1 %8, i1 false
  br i1 %or.cond.i, label %9, label %T1_Size_Get_Globals_Funcs.exit

9:                                                ; preds = %2
  %10 = load ptr, ptr %.val.val11, align 8
  %.not.i = icmp eq ptr %10, null
  br i1 %.not.i, label %T1_Size_Get_Globals_Funcs.exit, label %11

11:                                               ; preds = %9
  %12 = tail call ptr %10(ptr noundef nonnull %6) #16
  br label %T1_Size_Get_Globals_Funcs.exit

T1_Size_Get_Globals_Funcs.exit:                   ; preds = %2, %9, %11
  %13 = phi ptr [ %12, %11 ], [ null, %9 ], [ null, %2 ]
  %14 = load ptr, ptr %0, align 8
  %15 = tail call i32 @FT_Request_Metrics(ptr noundef %14, ptr noundef %1) #16
  %16 = icmp eq i32 %15, 0
  %17 = icmp ne ptr %13, null
  %or.cond = select i1 %16, i1 %17, i1 false
  br i1 %or.cond, label %18, label %28

18:                                               ; preds = %T1_Size_Get_Globals_Funcs.exit
  %19 = getelementptr inbounds i8, ptr %13, i64 8
  %20 = load ptr, ptr %19, align 8
  %21 = getelementptr inbounds i8, ptr %0, i64 80
  %22 = load ptr, ptr %21, align 8
  %23 = load ptr, ptr %22, align 8
  %24 = getelementptr inbounds i8, ptr %0, i64 32
  %25 = load i64, ptr %24, align 8
  %26 = getelementptr inbounds i8, ptr %0, i64 40
  %27 = load i64, ptr %26, align 8
  tail call void %20(ptr noundef %23, i64 noundef %25, i64 noundef %27, i64 noundef 0, i64 noundef 0) #16
  br label %28

28:                                               ; preds = %18, %T1_Size_Get_Globals_Funcs.exit
  ret i32 %15
}